; Function Attrs: nounwind sspstrong uwtable
define internal noundef zeroext i1 @qobject_input_type_null(ptr noundef captures(none) %v, ptr noundef %name, ptr noundef writeonly captures(none) initializes((0, 8)) %obj, ptr noundef %errp) #0 {
entry:
  %call.i = tail call fastcc ptr @qobject_input_try_get_object(ptr noundef %v, ptr noundef %name, i1 noundef zeroext true)
  %tobool1.not.i = icmp eq ptr %call.i, null
  br i1 %tobool1.not.i, label %qobject_input_get_object.exit.thread, label %if.end

qobject_input_get_object.exit.thread:             ; preds = %entry
  %call.i.i = tail call fastcc ptr @full_name_nth(ptr noundef %v, ptr noundef %name, i32 noundef 0)
  tail call void (ptr, ptr, i32, ptr, ptr, ...) @error_setg_internal(ptr noundef %errp, ptr noundef nonnull @.str.1, i32 noundef 171, ptr noundef nonnull @__func__.qobject_input_get_object, ptr noundef nonnull @.str.5, ptr noundef %call.i.i) #8
  store ptr null, ptr %obj, align 8
  br label %return

if.end:                                           ; preds = %entry
  store ptr null, ptr %obj, align 8
  %call1.val = load i32, ptr %call.i, align 8
  %0 = add i32 %call1.val, -1
  %or.cond.i = icmp ult i32 %0, 6
  br i1 %or.cond.i, label %qobject_type.exit, label %if.else.i

if.else.i:                                        ; preds = %if.end
  tail call void @__assert_fail(ptr noundef nonnull @.str.12, ptr noundef nonnull @.str.13, i32 noundef 126, ptr noundef nonnull @__PRETTY_FUNCTION__.qobject_type) #7
  unreachable

qobject_type.exit:                                ; preds = %if.end
  %cmp.not = icmp eq i32 %call1.val, 1
  br i1 %cmp.not, label %if.end5, label %if.then3

if.then3:                                         ; preds = %qobject_type.exit
  %call.i6 = tail call fastcc ptr @full_name_nth(ptr noundef %v, ptr noundef %name, i32 noundef 0)
  tail call void (ptr, ptr, i32, ptr, ptr, ...) @error_setg_internal(ptr noundef %errp, ptr noundef nonnull @.str.1, i32 noundef 627, ptr noundef nonnull @__func__.qobject_input_type_null, ptr noundef nonnull @.str.3, ptr noundef %call.i6, ptr noundef nonnull @.str.35) #8
  br label %return

if.end5:                                          ; preds = %qobject_type.exit
  %1 = load i64, ptr getelementptr inbounds nuw (i8, ptr @qnull_, i64 8), align 8
  %inc.i.i = add i64 %1, 1
  store i64 %inc.i.i, ptr getelementptr inbounds nuw (i8, ptr @qnull_, i64 8), align 8
  store ptr @qnull_, ptr %obj, align 8
  br label %return

return:                                           ; preds = %qobject_input_get_object.exit.thread, %if.end5, %if.then3
  %retval.0 = phi i1 [ false, %if.then3 ], [ true, %if.end5 ], [ false, %qobject_input_get_object.exit.thread ]
  ret i1 %retval.0
}